target datalayout = "e-m:e-p270:32:32-p271:32:32-p272:64:64-i64:64-i128:128-f80:128-n8:16:32:64-S128"
target triple = "x86_64-unknown-linux-gnu"

%"class.std::function.17" = type { %"class.std::_Function_base", ptr }
%"class.std::_Function_base" = type { %"union.std::_Any_data", ptr }
%"union.std::_Any_data" = type { %"union.std::_Nocopy_types" }
%"union.std::_Nocopy_types" = type { { i64, i64 } }
%"class.hermes::vm::GCBase" = type <{ ptr, i32, [4 x i8], i64, %"class.hermes::vm::GCExecTrace", [7 x i8], ptr, ptr, %"class.std::shared_ptr", i32, [4 x i8], %"class.std::function", %"class.std::vector", i8, i8, i8, i8, [4 x i8], %"class.std::chrono::time_point", %"class.std::chrono::duration.0", i64, i64, %"struct.hermes::vm::GCBase::CumulativeHeapStats", %"class.std::__cxx11::basic_string", %"class.std::deque", ptr, %"class.std::recursive_mutex", %"class.hermes::vm::GCBase::IDTracker", [3 x i64], %"class.std::function.17", i32, i8, [3 x i8] }>
%"class.hermes::vm::GCExecTrace" = type { i8 }
%"class.std::shared_ptr" = type { %"class.std::__shared_ptr" }
%"class.std::__shared_ptr" = type { ptr, %"class.std::__shared_count" }
%"class.std::__shared_count" = type { ptr }
%"class.std::function" = type { %"class.std::_Function_base", ptr }
%"class.std::vector" = type { %"struct.std::_Vector_base" }
%"struct.std::_Vector_base" = type { %"struct.std::_Vector_base<hermes::vm::GCAnalyticsEvent, std::allocator<hermes::vm::GCAnalyticsEvent>>::_Vector_impl" }
%"struct.std::_Vector_base<hermes::vm::GCAnalyticsEvent, std::allocator<hermes::vm::GCAnalyticsEvent>>::_Vector_impl" = type { %"struct.std::_Vector_base<hermes::vm::GCAnalyticsEvent, std::allocator<hermes::vm::GCAnalyticsEvent>>::_Vector_impl_data" }
%"struct.std::_Vector_base<hermes::vm::GCAnalyticsEvent, std::allocator<hermes::vm::GCAnalyticsEvent>>::_Vector_impl_data" = type { ptr, ptr, ptr }
%"class.std::chrono::time_point" = type { %"class.std::chrono::duration" }
%"class.std::chrono::duration" = type { i64 }
%"class.std::chrono::duration.0" = type { i64 }
%"struct.hermes::vm::GCBase::CumulativeHeapStats" = type { i32, %"class.hermes::StatsAccumulator", %"class.hermes::StatsAccumulator", i32, %"class.hermes::StatsAccumulator.1", %"class.hermes::StatsAccumulator.1" }
%"class.hermes::StatsAccumulator" = type { i32, double, double, double, double }
%"class.hermes::StatsAccumulator.1" = type { i32, i64, i32, i32, double }
%"class.std::__cxx11::basic_string" = type { %"struct.std::__cxx11::basic_string<char>::_Alloc_hider", i64, %union.anon }
%"struct.std::__cxx11::basic_string<char>::_Alloc_hider" = type { ptr }
%union.anon = type { i64, [8 x i8] }
%"class.std::deque" = type { %"class.std::_Deque_base" }
%"class.std::_Deque_base" = type { %"struct.std::_Deque_base<hermes::vm::WeakRefSlot, std::allocator<hermes::vm::WeakRefSlot>>::_Deque_impl" }
%"struct.std::_Deque_base<hermes::vm::WeakRefSlot, std::allocator<hermes::vm::WeakRefSlot>>::_Deque_impl" = type { %"struct.std::_Deque_base<hermes::vm::WeakRefSlot, std::allocator<hermes::vm::WeakRefSlot>>::_Deque_impl_data" }
%"struct.std::_Deque_base<hermes::vm::WeakRefSlot, std::allocator<hermes::vm::WeakRefSlot>>::_Deque_impl_data" = type { ptr, i64, %"struct.std::_Deque_iterator", %"struct.std::_Deque_iterator" }
%"struct.std::_Deque_iterator" = type { ptr, ptr, ptr, ptr }
%"class.std::recursive_mutex" = type { %"class.std::__recursive_mutex_base" }
%"class.std::__recursive_mutex_base" = type { %union.pthread_mutex_t }
%union.pthread_mutex_t = type { %struct.__pthread_mutex_s }
%struct.__pthread_mutex_s = type { i32, i32, i32, i32, i32, i16, i16, %struct.__pthread_internal_list }
%struct.__pthread_internal_list = type { ptr, ptr }
%"class.hermes::vm::GCBase::IDTracker" = type { %"class.std::recursive_mutex", i32, [4 x i8], %"class.llvh::DenseMap", %"class.llvh::DenseMap", %"class.llvh::DenseMap.8", %"class.llvh::DenseMap.11", %"class.llvh::DenseMap", %"class.llvh::DenseMap.14" }
%"class.llvh::DenseMap.8" = type <{ ptr, i32, i32, i32, [4 x i8] }>
%"class.llvh::DenseMap.11" = type <{ ptr, i32, i32, i32, [4 x i8] }>
%"class.llvh::DenseMap" = type <{ ptr, i32, i32, i32, [4 x i8] }>
%"class.llvh::DenseMap.14" = type <{ ptr, i32, i32, i32, [4 x i8] }>
%"struct.hermes::vm::GCBase::HeapInfo" = type { i32, i64, i64, i64, i32, i64, i64, i32, %"struct.hermes::vm::GCBase::CumulativeHeapStats", %"struct.hermes::vm::GCBase::CumulativeHeapStats" }
%"class.std::error_code" = type { i32, ptr }
%"class.llvh::MutableArrayRef" = type { %"class.llvh::ArrayRef" }
%"class.llvh::ArrayRef" = type { ptr, i64 }

@.str.48 = private unnamed_addr constant [130 x i8] c"[%.20s] reason = %.150s (%d from category: %.50s), numCollections = %u, heapSize = %lu, allocated = %lu, va = %lu, external = %lu\00", align 1

; Function Attrs: mustprogress nounwind uwtable
define linkonce_odr hidden void @_ZN6hermes16StatsAccumulatorIjmEC2Ev(ptr noundef nonnull align 8 dereferenceable(32) %this) unnamed_addr #0 comdat align 2 {
entry:
  %this.addr = alloca ptr, align 8
  store ptr %this, ptr %this.addr, align 8
  %this1 = load ptr, ptr %this.addr, align 8
  %n_ = getelementptr inbounds %"class.hermes::StatsAccumulator.1", ptr %this1, i32 0, i32 0
  store i32 0, ptr %n_, align 8
  %sum_ = getelementptr inbounds %"class.hermes::StatsAccumulator.1", ptr %this1, i32 0, i32 1
  store i64 0, ptr %sum_, align 8
  %min_ = getelementptr inbounds %"class.hermes::StatsAccumulator.1", ptr %this1, i32 0, i32 2
  store i32 0, ptr %min_, align 8
  %max_ = getelementptr inbounds %"class.hermes::StatsAccumulator.1", ptr %this1, i32 0, i32 3
  store i32 0, ptr %max_, align 4
  %sumOfSquares_ = getelementptr inbounds %"class.hermes::StatsAccumulator.1", ptr %this1, i32 0, i32 4
  store double 0.000000e+00, ptr %sumOfSquares_, align 8
  ret void
}

; Function Attrs: mustprogress nounwind uwtable
define linkonce_odr hidden void @_ZN6hermes16StatsAccumulatorIddEC2Ev(ptr noundef nonnull align 8 dereferenceable(40) %this) unnamed_addr #0 comdat align 2 {
entry:
  %this.addr = alloca ptr, align 8
  store ptr %this, ptr %this.addr, align 8
  %this1 = load ptr, ptr %this.addr, align 8
  %n_ = getelementptr inbounds %"class.hermes::StatsAccumulator", ptr %this1, i32 0, i32 0
  store i32 0, ptr %n_, align 8
  %sum_ = getelementptr inbounds %"class.hermes::StatsAccumulator", ptr %this1, i32 0, i32 1
  store double 0.000000e+00, ptr %sum_, align 8
  %min_ = getelementptr inbounds %"class.hermes::StatsAccumulator", ptr %this1, i32 0, i32 2
  store double 0.000000e+00, ptr %min_, align 8
  %max_ = getelementptr inbounds %"class.hermes::StatsAccumulator", ptr %this1, i32 0, i32 3
  store double 0.000000e+00, ptr %max_, align 8
  %sumOfSquares_ = getelementptr inbounds %"class.hermes::StatsAccumulator", ptr %this1, i32 0, i32 4
  store double 0.000000e+00, ptr %sumOfSquares_, align 8
  ret void
}

; Function Attrs: mustprogress nounwind uwtable
define linkonce_odr hidden noundef ptr @_ZNK4llvh8ArrayRefIcE4dataEv(ptr noundef nonnull align 8 dereferenceable(16) %this) #0 comdat align 2 {
entry:
  %this.addr = alloca ptr, align 8
  store ptr %this, ptr %this.addr, align 8
  %this1 = load ptr, ptr %this.addr, align 8
  %Data = getelementptr inbounds %"class.llvh::ArrayRef", ptr %this1, i32 0, i32 0
  %0 = load ptr, ptr %Data, align 8
  ret ptr %0
}

; Function Attrs: mustprogress nounwind uwtable
define linkonce_odr hidden void @_ZN6hermes2vm6GCBase19CumulativeHeapStatsC2Ev(ptr noundef nonnull align 8 dereferenceable(160) %this) unnamed_addr #0 comdat align 2 {
entry:
  %this.addr = alloca ptr, align 8
  store ptr %this, ptr %this.addr, align 8
  %this1 = load ptr, ptr %this.addr, align 8
  %numCollections = getelementptr inbounds %"struct.hermes::vm::GCBase::CumulativeHeapStats", ptr %this1, i32 0, i32 0
  store i32 0, ptr %numCollections, align 8
  %gcWallTime = getelementptr inbounds %"struct.hermes::vm::GCBase::CumulativeHeapStats", ptr %this1, i32 0, i32 1
  call void @_ZN6hermes16StatsAccumulatorIddEC2Ev(ptr noundef nonnull align 8 dereferenceable(40) %gcWallTime) #14
  %gcCPUTime = getelementptr inbounds %"struct.hermes::vm::GCBase::CumulativeHeapStats", ptr %this1, i32 0, i32 2
  call void @_ZN6hermes16StatsAccumulatorIddEC2Ev(ptr noundef nonnull align 8 dereferenceable(40) %gcCPUTime) #14
  %finalHeapSize = getelementptr inbounds %"struct.hermes::vm::GCBase::CumulativeHeapStats", ptr %this1, i32 0, i32 3
  store i32 0, ptr %finalHeapSize, align 8
  %usedBefore = getelementptr inbounds %"struct.hermes::vm::GCBase::CumulativeHeapStats", ptr %this1, i32 0, i32 4
  call void @_ZN6hermes16StatsAccumulatorIjmEC2Ev(ptr noundef nonnull align 8 dereferenceable(32) %usedBefore) #14
  %usedAfter = getelementptr inbounds %"struct.hermes::vm::GCBase::CumulativeHeapStats", ptr %this1, i32 0, i32 5
  call void @_ZN6hermes16StatsAccumulatorIjmEC2Ev(ptr noundef nonnull align 8 dereferenceable(32) %usedAfter) #14
  ret void
}

; Function Attrs: mustprogress nounwind uwtable
define linkonce_odr noundef nonnull align 8 dereferenceable(8) ptr @_ZNKSt10error_code8categoryEv(ptr noundef nonnull align 8 dereferenceable(16) %this) #0 comdat align 2 {
entry:
  %this.addr = alloca ptr, align 8
  store ptr %this, ptr %this.addr, align 8
  %this1 = load ptr, ptr %this.addr, align 8
  %_M_cat = getelementptr inbounds %"class.std::error_code", ptr %this1, i32 0, i32 1
  %0 = load ptr, ptr %_M_cat, align 8
  ret ptr %0
}

; Function Attrs: mustprogress nounwind uwtable
define linkonce_odr noundef i32 @_ZNKSt10error_code5valueEv(ptr noundef nonnull align 8 dereferenceable(16) %this) #0 comdat align 2 {
entry:
  %this.addr = alloca ptr, align 8
  store ptr %this, ptr %this.addr, align 8
  %this1 = load ptr, ptr %this.addr, align 8
  %_M_value = getelementptr inbounds %"class.std::error_code", ptr %this1, i32 0, i32 0
  %0 = load i32, ptr %_M_value, align 8
  ret i32 %0
}

; Function Attrs: mustprogress nounwind uwtable
define linkonce_odr void @_ZNKSt10error_code7messageB5cxx11Ev(ptr noalias sret(%"class.std::__cxx11::basic_string") align 8 %agg.result, ptr noundef nonnull align 8 dereferenceable(16) %this) #0 comdat align 2 {
entry:
  %result.ptr = alloca ptr, align 8
  %this.addr = alloca ptr, align 8
  store ptr %agg.result, ptr %result.ptr, align 8
  store ptr %this, ptr %this.addr, align 8
  %this1 = load ptr, ptr %this.addr, align 8
  %call = call noundef nonnull align 8 dereferenceable(8) ptr @_ZNKSt10error_code8categoryEv(ptr noundef nonnull align 8 dereferenceable(16) %this1) #14
  %call2 = call noundef i32 @_ZNKSt10error_code5valueEv(ptr noundef nonnull align 8 dereferenceable(16) %this1) #14
  %vtable = load ptr, ptr %call, align 8
  %vfn = getelementptr inbounds ptr, ptr %vtable, i64 4
  %0 = load ptr, ptr %vfn, align 8
  call void %0(ptr sret(%"class.std::__cxx11::basic_string") align 8 %agg.result, ptr noundef nonnull align 8 dereferenceable(8) %call, i32 noundef %call2)
  ret void
}

; Function Attrs: mustprogress nounwind uwtable
define linkonce_odr hidden noundef i64 @_ZNK4llvh8ArrayRefIcE4sizeEv(ptr noundef nonnull align 8 dereferenceable(16) %this) #0 comdat align 2 {
entry:
  %this.addr = alloca ptr, align 8
  store ptr %this, ptr %this.addr, align 8
  %this1 = load ptr, ptr %this.addr, align 8
  %Length = getelementptr inbounds %"class.llvh::ArrayRef", ptr %this1, i32 0, i32 1
  %0 = load i64, ptr %Length, align 8
  ret i64 %0
}

; Function Attrs: mustprogress nounwind uwtable
define linkonce_odr hidden noundef ptr @_ZNK4llvh15MutableArrayRefIcE4dataEv(ptr noundef nonnull align 8 dereferenceable(16) %this) #0 comdat align 2 {
entry:
  %this.addr = alloca ptr, align 8
  store ptr %this, ptr %this.addr, align 8
  %this1 = load ptr, ptr %this.addr, align 8
  %call = call noundef ptr @_ZNK4llvh8ArrayRefIcE4dataEv(ptr noundef nonnull align 8 dereferenceable(16) %this1)
  ret ptr %call
}

; Function Attrs: mustprogress nounwind uwtable
define linkonce_odr hidden void @_ZN6hermes2vm6GCBase8HeapInfoC2Ev(ptr noundef nonnull align 8 dereferenceable(384) %this) unnamed_addr #0 comdat align 2 {
entry:
  %this.addr = alloca ptr, align 8
  store ptr %this, ptr %this.addr, align 8
  %this1 = load ptr, ptr %this.addr, align 8
  %numCollections = getelementptr inbounds %"struct.hermes::vm::GCBase::HeapInfo", ptr %this1, i32 0, i32 0
  store i32 0, ptr %numCollections, align 8
  %totalAllocatedBytes = getelementptr inbounds %"struct.hermes::vm::GCBase::HeapInfo", ptr %this1, i32 0, i32 1
  store i64 0, ptr %totalAllocatedBytes, align 8
  %allocatedBytes = getelementptr inbounds %"struct.hermes::vm::GCBase::HeapInfo", ptr %this1, i32 0, i32 2
  store i64 0, ptr %allocatedBytes, align 8
  %heapSize = getelementptr inbounds %"struct.hermes::vm::GCBase::HeapInfo", ptr %this1, i32 0, i32 3
  store i64 0, ptr %heapSize, align 8
  %mallocSizeEstimate = getelementptr inbounds %"struct.hermes::vm::GCBase::HeapInfo", ptr %this1, i32 0, i32 4
  store i32 0, ptr %mallocSizeEstimate, align 8
  %va = getelementptr inbounds %"struct.hermes::vm::GCBase::HeapInfo", ptr %this1, i32 0, i32 5
  store i64 0, ptr %va, align 8
  %externalBytes = getelementptr inbounds %"struct.hermes::vm::GCBase::HeapInfo", ptr %this1, i32 0, i32 6
  store i64 0, ptr %externalBytes, align 8
  %numMarkStackOverflows = getelementptr inbounds %"struct.hermes::vm::GCBase::HeapInfo", ptr %this1, i32 0, i32 7
  store i32 0, ptr %numMarkStackOverflows, align 8
  %fullStats = getelementptr inbounds %"struct.hermes::vm::GCBase::HeapInfo", ptr %this1, i32 0, i32 8
  call void @_ZN6hermes2vm6GCBase19CumulativeHeapStatsC2Ev(ptr noundef nonnull align 8 dereferenceable(160) %fullStats) #14
  %youngGenStats = getelementptr inbounds %"struct.hermes::vm::GCBase::HeapInfo", ptr %this1, i32 0, i32 9
  call void @_ZN6hermes2vm6GCBase19CumulativeHeapStatsC2Ev(ptr noundef nonnull align 8 dereferenceable(160) %youngGenStats) #14
  ret void
}

; Function Attrs: mustprogress nounwind uwtable
define hidden void @_ZN6hermes2vm6GCBase9oomDetailEN4llvh15MutableArrayRefIcEESt10error_code(ptr noundef nonnull align 8 dereferenceable(741) %this, ptr %detailBuffer.coerce0, i64 %detailBuffer.coerce1, i32 %reason.coerce0, ptr %reason.coerce1) unnamed_addr #0 align 2 {
entry:
  %detailBuffer = alloca %"class.llvh::MutableArrayRef", align 8
  %reason = alloca %"class.std::error_code", align 8
  %this.addr = alloca ptr, align 8
  %heapInfo = alloca %"struct.hermes::vm::GCBase::HeapInfo", align 8
  %ref.tmp = alloca %"class.std::__cxx11::basic_string", align 8
  %0 = getelementptr inbounds { ptr, i64 }, ptr %detailBuffer, i32 0, i32 0
  store ptr %detailBuffer.coerce0, ptr %0, align 8
  %1 = getelementptr inbounds { ptr, i64 }, ptr %detailBuffer, i32 0, i32 1
  store i64 %detailBuffer.coerce1, ptr %1, align 8
  %2 = getelementptr inbounds { i32, ptr }, ptr %reason, i32 0, i32 0
  store i32 %reason.coerce0, ptr %2, align 8
  %3 = getelementptr inbounds { i32, ptr }, ptr %reason, i32 0, i32 1
  store ptr %reason.coerce1, ptr %3, align 8
  store ptr %this, ptr %this.addr, align 8
  %this1 = load ptr, ptr %this.addr, align 8
  call void @_ZN6hermes2vm6GCBase8HeapInfoC2Ev(ptr noundef nonnull align 8 dereferenceable(384) %heapInfo) #14
  %vtable = load ptr, ptr %this1, align 8
  %vfn = getelementptr inbounds ptr, ptr %vtable, i64 6
  %4 = load ptr, ptr %vfn, align 8
  call void %4(ptr noundef nonnull align 8 dereferenceable(741) %this1, ptr noundef nonnull align 8 dereferenceable(384) %heapInfo)
  %call = call noundef ptr @_ZNK4llvh15MutableArrayRefIcE4dataEv(ptr noundef nonnull align 8 dereferenceable(16) %detailBuffer)
  %call2 = call noundef i64 @_ZNK4llvh8ArrayRefIcE4sizeEv(ptr noundef nonnull align 8 dereferenceable(16) %detailBuffer)
  %name_ = getelementptr inbounds %"class.hermes::vm::GCBase", ptr %this1, i32 0, i32 23
  %call3 = call noundef ptr @_ZNKSt7__cxx1112basic_stringIcSt11char_traitsIcESaIcEE5c_strEv(ptr noundef nonnull align 8 dereferenceable(32) %name_) #14
  call void @_ZNKSt10error_code7messageB5cxx11Ev(ptr sret(%"class.std::__cxx11::basic_string") align 8 %ref.tmp, ptr noundef nonnull align 8 dereferenceable(16) %reason)
  %call4 = call noundef ptr @_ZNKSt7__cxx1112basic_stringIcSt11char_traitsIcESaIcEE5c_strEv(ptr noundef nonnull align 8 dereferenceable(32) %ref.tmp) #14
  %call5 = call noundef i32 @_ZNKSt10error_code5valueEv(ptr noundef nonnull align 8 dereferenceable(16) %reason) #14
  %call6 = call noundef nonnull align 8 dereferenceable(8) ptr @_ZNKSt10error_code8categoryEv(ptr noundef nonnull align 8 dereferenceable(16) %reason) #14
  %vtable7 = load ptr, ptr %call6, align 8
  %vfn8 = getelementptr inbounds ptr, ptr %vtable7, i64 2
  %5 = load ptr, ptr %vfn8, align 8
  %call9 = call noundef ptr %5(ptr noundef nonnull align 8 dereferenceable(8) %call6) #14
  %numCollections = getelementptr inbounds %"struct.hermes::vm::GCBase::HeapInfo", ptr %heapInfo, i32 0, i32 0
  %6 = load i32, ptr %numCollections, align 8
  %heapSize = getelementptr inbounds %"struct.hermes::vm::GCBase::HeapInfo", ptr %heapInfo, i32 0, i32 3
  %7 = load i64, ptr %heapSize, align 8
  %allocatedBytes = getelementptr inbounds %"struct.hermes::vm::GCBase::HeapInfo", ptr %heapInfo, i32 0, i32 2
  %8 = load i64, ptr %allocatedBytes, align 8
  %va = getelementptr inbounds %"struct.hermes::vm::GCBase::HeapInfo", ptr %heapInfo, i32 0, i32 5
  %9 = load i64, ptr %va, align 8
  %externalBytes = getelementptr inbounds %"struct.hermes::vm::GCBase::HeapInfo", ptr %heapInfo, i32 0, i32 6
  %10 = load i64, ptr %externalBytes, align 8
  %call10 = call i32 (ptr, i64, ptr, ...) @snprintf(ptr noundef %call, i64 noundef %call2, ptr noundef @.str.48, ptr noundef %call3, ptr noundef %call4, i32 noundef %call5, ptr noundef %call9, i32 noundef %6, i64 noundef %7, i64 noundef %8, i64 noundef %9, i64 noundef %10) #14
  call void @_ZNSt7__cxx1112basic_stringIcSt11char_traitsIcESaIcEED1Ev(ptr noundef nonnull align 8 dereferenceable(32) %ref.tmp) #14
  ret void
}