; Function Attrs: mustprogress nounwind uwtable
define hidden void @_ZN6hermes2vm6GCBase9oomDetailEN4llvh15MutableArrayRefIcEESt10error_code(ptr noundef nonnull align 8 dereferenceable(741) %this, ptr nocapture writeonly %detailBuffer.coerce0, i64 %detailBuffer.coerce1, i32 %reason.coerce0, ptr %reason.coerce1) unnamed_addr #0 align 2 {
entry:
  %heapInfo = alloca %"struct.hermes::vm::GCBase::HeapInfo", align 8
  %ref.tmp = alloca %"class.std::__cxx11::basic_string", align 8
  store i32 0, ptr %heapInfo, align 8
  %totalAllocatedBytes.i = getelementptr inbounds i8, ptr %heapInfo, i64 8
  %va.i = getelementptr inbounds i8, ptr %heapInfo, i64 40
  %fullStats.i = getelementptr inbounds i8, ptr %heapInfo, i64 64
  store i32 0, ptr %fullStats.i, align 8
  %gcWallTime.i.i = getelementptr inbounds i8, ptr %heapInfo, i64 72
  store i32 0, ptr %gcWallTime.i.i, align 8
  %sum_.i.i.i = getelementptr inbounds i8, ptr %heapInfo, i64 80
  %sum_.i1.i.i = getelementptr inbounds i8, ptr %heapInfo, i64 120
  %usedBefore.i.i = getelementptr inbounds i8, ptr %heapInfo, i64 160
  store i32 0, ptr %usedBefore.i.i, align 8
  %sum_.i2.i.i = getelementptr inbounds i8, ptr %heapInfo, i64 168
  %sum_.i3.i.i = getelementptr inbounds i8, ptr %heapInfo, i64 200
  call void @llvm.memset.p0.i64(ptr noundef nonnull align 8 dereferenceable(36) %sum_.i.i.i, i8 0, i64 36, i1 false)
  call void @llvm.memset.p0.i64(ptr noundef nonnull align 8 dereferenceable(36) %sum_.i1.i.i, i8 0, i64 36, i1 false)
  call void @llvm.memset.p0.i64(ptr noundef nonnull align 8 dereferenceable(28) %sum_.i2.i.i, i8 0, i64 28, i1 false)
  %gcWallTime.i1.i = getelementptr inbounds i8, ptr %heapInfo, i64 232
  store i32 0, ptr %gcWallTime.i1.i, align 8
  %sum_.i.i2.i = getelementptr inbounds i8, ptr %heapInfo, i64 240
  %sum_.i1.i3.i = getelementptr inbounds i8, ptr %heapInfo, i64 280
  %usedBefore.i4.i = getelementptr inbounds i8, ptr %heapInfo, i64 320
  store i32 0, ptr %usedBefore.i4.i, align 8
  %sum_.i2.i5.i = getelementptr inbounds i8, ptr %heapInfo, i64 328
  %sum_.i3.i6.i = getelementptr inbounds i8, ptr %heapInfo, i64 360
  call void @llvm.memset.p0.i64(ptr noundef nonnull align 8 dereferenceable(24) %sum_.i3.i6.i, i8 0, i64 24, i1 false)
  call void @llvm.memset.p0.i64(ptr noundef nonnull align 8 dereferenceable(36) %sum_.i.i2.i, i8 0, i64 36, i1 false)
  call void @llvm.memset.p0.i64(ptr noundef nonnull align 8 dereferenceable(36) %sum_.i1.i3.i, i8 0, i64 36, i1 false)
  call void @llvm.memset.p0.i64(ptr noundef nonnull align 8 dereferenceable(28) %sum_.i2.i5.i, i8 0, i64 28, i1 false)
  call void @llvm.memset.p0.i64(ptr noundef nonnull align 8 dereferenceable(28) %totalAllocatedBytes.i, i8 0, i64 28, i1 false)
  call void @llvm.memset.p0.i64(ptr noundef nonnull align 8 dereferenceable(20) %va.i, i8 0, i64 20, i1 false)
  call void @llvm.memset.p0.i64(ptr noundef nonnull align 8 dereferenceable(28) %sum_.i3.i.i, i8 0, i64 28, i1 false)
  %vtable = load ptr, ptr %this, align 8
  %vfn = getelementptr inbounds i8, ptr %vtable, i64 48
  %0 = load ptr, ptr %vfn, align 8
  call void %0(ptr noundef nonnull align 8 dereferenceable(741) %this, ptr noundef nonnull align 8 dereferenceable(384) %heapInfo) #27
  %name_ = getelementptr inbounds i8, ptr %this, i64 328
  %call3 = call noundef ptr @_ZNKSt7__cxx1112basic_stringIcSt11char_traitsIcESaIcEE5c_strEv(ptr noundef nonnull align 8 dereferenceable(32) %name_) #27
  %vtable.i = load ptr, ptr %reason.coerce1, align 8, !noalias !20
  %vfn.i = getelementptr inbounds i8, ptr %vtable.i, i64 32
  %1 = load ptr, ptr %vfn.i, align 8, !noalias !20
  call void %1(ptr nonnull sret(%"class.std::__cxx11::basic_string") align 8 %ref.tmp, ptr noundef nonnull align 8 dereferenceable(8) %reason.coerce1, i32 noundef %reason.coerce0) #27
  %call4 = call noundef ptr @_ZNKSt7__cxx1112basic_stringIcSt11char_traitsIcESaIcEE5c_strEv(ptr noundef nonnull align 8 dereferenceable(32) %ref.tmp) #27
  %vtable7 = load ptr, ptr %reason.coerce1, align 8
  %vfn8 = getelementptr inbounds i8, ptr %vtable7, i64 16
  %2 = load ptr, ptr %vfn8, align 8
  %call9 = call noundef ptr %2(ptr noundef nonnull align 8 dereferenceable(8) %reason.coerce1) #27
  %3 = load i32, ptr %heapInfo, align 8
  %heapSize = getelementptr inbounds i8, ptr %heapInfo, i64 24
  %4 = load i64, ptr %heapSize, align 8
  %allocatedBytes = getelementptr inbounds i8, ptr %heapInfo, i64 16
  %5 = load i64, ptr %allocatedBytes, align 8
  %6 = load i64, ptr %va.i, align 8
  %externalBytes = getelementptr inbounds i8, ptr %heapInfo, i64 48
  %7 = load i64, ptr %externalBytes, align 8
  %call10 = call i32 (ptr, i64, ptr, ...) @snprintf(ptr noundef %detailBuffer.coerce0, i64 noundef %detailBuffer.coerce1, ptr noundef nonnull @.str.48, ptr noundef %call3, ptr noundef %call4, i32 noundef %reason.coerce0, ptr noundef %call9, i32 noundef %3, i64 noundef %4, i64 noundef %5, i64 noundef %6, i64 noundef %7) #27
  call void @_ZNSt7__cxx1112basic_stringIcSt11char_traitsIcESaIcEED1Ev(ptr noundef nonnull align 8 dereferenceable(32) %ref.tmp) #27
  ret void
}